; Function Attrs: mustprogress uwtable
define hidden noundef ptr @_ZN7datalog19sparse_table_plugin30mk_select_equal_and_project_fnERKNS_10table_baseERKmj(ptr nocapture noundef nonnull readonly align 8 dereferenceable(56) %this, ptr noundef nonnull align 8 dereferenceable(36) %t, ptr nocapture noundef nonnull readonly align 8 dereferenceable(8) %value, i32 noundef %col) unnamed_addr #3 align 2 personality ptr @__gxx_personality_v0 {
entry:
  %col.addr.i = alloca i32, align 4
  %m_kind.i = getelementptr inbounds i8, ptr %t, i64 32
  %0 = load i32, ptr %m_kind.i, align 8
  %m_kind.i5 = getelementptr inbounds i8, ptr %this, i64 8
  %1 = load i32, ptr %m_kind.i5, align 8
  %cmp.not = icmp eq i32 %0, %1
  br i1 %cmp.not, label %lor.lhs.false, label %return

lor.lhs.false:                                    ; preds = %entry
  %m_signature.i = getelementptr inbounds i8, ptr %t, i64 16
  %2 = load ptr, ptr %m_signature.i, align 8
  %cmp.i = icmp eq ptr %2, null
  br i1 %cmp.i, label %_ZNK7datalog15table_signature16first_functionalEv.exit, label %_ZNK6vectorImLb0EjE4sizeEv.exit

_ZNK6vectorImLb0EjE4sizeEv.exit:                  ; preds = %lor.lhs.false
  %arrayidx.i = getelementptr inbounds i8, ptr %2, i64 -4
  %3 = load i32, ptr %arrayidx.i, align 4
  %cmp5 = icmp eq i32 %3, 1
  br i1 %cmp5, label %return, label %_ZNK7datalog15table_signature16first_functionalEv.exit

_ZNK7datalog15table_signature16first_functionalEv.exit: ; preds = %_ZNK6vectorImLb0EjE4sizeEv.exit, %lor.lhs.false
  %retval.0.i.i = phi i32 [ 0, %lor.lhs.false ], [ %3, %_ZNK6vectorImLb0EjE4sizeEv.exit ]
  %m_functional_columns.i = getelementptr inbounds i8, ptr %t, i64 24
  %4 = load i32, ptr %m_functional_columns.i, align 8
  %sub.i = sub i32 %retval.0.i.i, %4
  %cmp9.not = icmp ugt i32 %sub.i, %col
  br i1 %cmp9.not, label %if.end, label %return

if.end:                                           ; preds = %_ZNK7datalog15table_signature16first_functionalEv.exit
  %call10 = tail call noalias noundef ptr @_ZN6memory8allocateEm(i64 noundef 40)
  %5 = load i64, ptr %value, align 8
  call void @llvm.lifetime.start.p0(i64 4, ptr nonnull %col.addr.i)
  store i32 %col, ptr %col.addr.i, align 4
  %m_result_sig.i.i = getelementptr inbounds i8, ptr %call10, i64 8
  store ptr null, ptr %m_result_sig.i.i, align 8
  %m_functional_columns.i.i.i = getelementptr inbounds i8, ptr %call10, i64 16
  store i32 0, ptr %m_functional_columns.i.i.i, align 8
  store ptr getelementptr inbounds ({ [5 x ptr] }, ptr @_ZTVN7datalog19sparse_table_plugin27select_equal_and_project_fnE, i64 0, i32 0, i64 2), ptr %call10, align 8
  %m_col.i = getelementptr inbounds i8, ptr %call10, i64 24
  store i32 %col, ptr %m_col.i, align 8
  %m_key.i = getelementptr inbounds i8, ptr %call10, i64 32
  store ptr null, ptr %m_key.i, align 8
  invoke void @_ZN7datalog15table_signature12from_projectERKS0_jPKjRS0_(ptr noundef nonnull align 8 dereferenceable(12) %m_signature.i, i32 noundef 1, ptr noundef nonnull %col.addr.i, ptr noundef nonnull align 8 dereferenceable(12) %m_result_sig.i.i)
          to label %invoke.cont3.i unwind label %lpad2.i

invoke.cont3.i:                                   ; preds = %if.end
  %6 = load ptr, ptr %m_key.i, align 8
  %cmp.i.i8 = icmp eq ptr %6, null
  br i1 %cmp.i.i8, label %if.then.i.i, label %lor.lhs.false.i.i

lor.lhs.false.i.i:                                ; preds = %invoke.cont3.i
  %arrayidx.i.i9 = getelementptr inbounds i8, ptr %6, i64 -4
  %7 = load i32, ptr %arrayidx.i.i9, align 4
  %arrayidx4.i.i = getelementptr inbounds i8, ptr %6, i64 -8
  %8 = load i32, ptr %arrayidx4.i.i, align 4
  %cmp5.i.i = icmp eq i32 %7, %8
  br i1 %cmp5.i.i, label %if.then.i.i, label %_ZN7datalog19sparse_table_plugin27select_equal_and_project_fnC2ERKNS_15table_signatureEmj.exit

if.then.i.i:                                      ; preds = %lor.lhs.false.i.i, %invoke.cont3.i
  invoke void @_ZN6vectorImLb0EjE13expand_vectorEv(ptr noundef nonnull align 8 dereferenceable(8) %m_key.i)
          to label %.noexc.i unwind label %lpad2.i

.noexc.i:                                         ; preds = %if.then.i.i
  %.pre.i.i = load ptr, ptr %m_key.i, align 8
  %arrayidx8.phi.trans.insert.i.i = getelementptr inbounds i8, ptr %.pre.i.i, i64 -4
  %.pre1.i.i = load i32, ptr %arrayidx8.phi.trans.insert.i.i, align 4
  br label %_ZN7datalog19sparse_table_plugin27select_equal_and_project_fnC2ERKNS_15table_signatureEmj.exit

lpad2.i:                                          ; preds = %if.then.i.i, %if.end
  %9 = landingpad { ptr, i32 }
          cleanup
  call void @_ZN7svectorImjED2Ev(ptr noundef nonnull align 8 dereferenceable(8) %m_key.i) #25
  call void @_ZN7datalog17tr_infrastructureINS_12table_traitsEE25convenient_transformer_fnD2Ev(ptr noundef nonnull align 8 dereferenceable(24) %call10) #25
  resume { ptr, i32 } %9

_ZN7datalog19sparse_table_plugin27select_equal_and_project_fnC2ERKNS_15table_signatureEmj.exit: ; preds = %lor.lhs.false.i.i, %.noexc.i
  %10 = phi i32 [ %.pre1.i.i, %.noexc.i ], [ %7, %lor.lhs.false.i.i ]
  %11 = phi ptr [ %.pre.i.i, %.noexc.i ], [ %6, %lor.lhs.false.i.i ]
  %idx.ext.i.i = zext i32 %10 to i64
  %add.ptr.i.i = getelementptr inbounds i64, ptr %11, i64 %idx.ext.i.i
  store i64 %5, ptr %add.ptr.i.i, align 8
  %12 = load ptr, ptr %m_key.i, align 8
  %arrayidx10.i.i = getelementptr inbounds i8, ptr %12, i64 -4
  %13 = load i32, ptr %arrayidx10.i.i, align 4
  %inc.i.i = add i32 %13, 1
  store i32 %inc.i.i, ptr %arrayidx10.i.i, align 4
  call void @llvm.lifetime.end.p0(i64 4, ptr nonnull %col.addr.i)
  br label %return

return:                                           ; preds = %entry, %_ZNK6vectorImLb0EjE4sizeEv.exit, %_ZNK7datalog15table_signature16first_functionalEv.exit, %_ZN7datalog19sparse_table_plugin27select_equal_and_project_fnC2ERKNS_15table_signatureEmj.exit
  %retval.0 = phi ptr [ %call10, %_ZN7datalog19sparse_table_plugin27select_equal_and_project_fnC2ERKNS_15table_signatureEmj.exit ], [ null, %_ZNK7datalog15table_signature16first_functionalEv.exit ], [ null, %_ZNK6vectorImLb0EjE4sizeEv.exit ], [ null, %entry ]
  ret ptr %retval.0
}